; Function Attrs: mustprogress uwtable
define void @_ZNK6casadi6MXNode11get_bsplineERKSt6vectorIdSaIdEERKS1_IxSaIxEES5_S9_xS9_(ptr dead_on_unwind noalias writable sret(%"class.casadi::MX") align 8 %0, ptr noundef nonnull align 8 dereferenceable(64) %1, ptr noundef nonnull align 8 dereferenceable(24) %2, ptr noundef nonnull align 8 dereferenceable(24) %3, ptr noundef nonnull align 8 dereferenceable(24) %4, ptr noundef nonnull align 8 dereferenceable(24) %5, i64 noundef %6, ptr noundef nonnull align 8 dereferenceable(24) %7) local_unnamed_addr #3 align 2 personality ptr @__gxx_personality_v0 {
  %9 = alloca %"class.casadi::MX", align 8
  call void @_ZNK6casadi20SharedObjectInternal16shared_from_thisINS_2MXEEEKT_v(ptr dead_on_unwind nonnull writable sret(%"class.casadi::MX") align 8 %9, ptr noundef nonnull align 8 dereferenceable(24) %1)
  %10 = invoke noalias noundef nonnull dereferenceable(256) ptr @_Znwm(i64 noundef 256) #35
          to label %11 unwind label %14

11:                                               ; preds = %8
  invoke void @_ZN6casadi7BSplineC1ERKNS_2MXERKSt6vectorIdSaIdEERKS4_IxSaIxEES8_SC_xSC_(ptr noundef nonnull align 8 dereferenceable(256) %10, ptr noundef nonnull align 8 dereferenceable(8) %9, ptr noundef nonnull align 8 dereferenceable(24) %2, ptr noundef nonnull align 8 dereferenceable(24) %3, ptr noundef nonnull align 8 dereferenceable(24) %4, ptr noundef nonnull align 8 dereferenceable(24) %5, i64 noundef %6, ptr noundef nonnull align 8 dereferenceable(24) %7)
          to label %12 unwind label %16

12:                                               ; preds = %11
  invoke void @_ZN6casadi2MX6createEPNS_6MXNodeE(ptr dead_on_unwind writable sret(%"class.casadi::MX") align 8 %0, ptr noundef nonnull %10)
          to label %13 unwind label %14

13:                                               ; preds = %12
  call void @_ZN6casadi2MXD1Ev(ptr noundef nonnull align 8 dereferenceable(8) %9) #31
  ret void

14:                                               ; preds = %12, %8
  %15 = landingpad { ptr, i32 }
          cleanup
  br label %18

16:                                               ; preds = %11
  %17 = landingpad { ptr, i32 }
          cleanup
  call void @_ZdlPv(ptr noundef nonnull %10) #32
  br label %18

18:                                               ; preds = %16, %14
  %.pn = phi { ptr, i32 } [ %15, %14 ], [ %17, %16 ]
  call void @_ZN6casadi2MXD1Ev(ptr noundef nonnull align 8 dereferenceable(8) %9) #31
  resume { ptr, i32 } %.pn
}